target datalayout = "e-m:e-p270:32:32-p271:32:32-p272:64:64-i64:64-i128:128-f80:128-n8:16:32:64-S128"
target triple = "x86_64-pc-linux-gnu"

%struct.sat_solver3_t = type { i32, i32, i32, i32, %struct.Sat_Mem_t_, i32, i32, ptr, ptr, i32, i32, i32, i32, i32, i64, i64, i64, ptr, ptr, i32, i32, %struct.veci_t, ptr, i32, ptr, ptr, ptr, ptr, ptr, ptr, ptr, ptr, %struct.veci_t, %struct.veci_t, %struct.veci_t, %struct.veci_t, ptr, %struct.veci_t, i32, i32, i32, double, double, i32, i32, %struct.stats_t, i32, i32, i32, i32, i32, i64, i64, i64, %struct.veci_t, ptr, i32, i32, i32, %struct.veci_t, %struct.veci_t, i32, i32, i32, ptr, ptr, i32, ptr, i32, i32, %struct.veci_t, ptr, ptr }
%struct.Sat_Mem_t_ = type { [2 x i32], [2 x i32], [2 x i32], [2 x i32], i32, i32, i32, i32, ptr }
%struct.stats_t = type { i32, i32, i32, i64, i64, i64, i64, i64, i64, i64 }
%struct.veci_t = type { i32, i32, ptr }

; Function Attrs: inlinehint nounwind uwtable
define internal void @veci_resize(ptr noundef %0, i32 noundef %1) #1 {
  %3 = alloca ptr, align 8
  %4 = alloca i32, align 4
  store ptr %0, ptr %3, align 8, !tbaa !45
  store i32 %1, ptr %4, align 4, !tbaa !8
  %5 = load i32, ptr %4, align 4, !tbaa !8
  %6 = load ptr, ptr %3, align 8, !tbaa !45
  %7 = getelementptr inbounds nuw %struct.veci_t, ptr %6, i32 0, i32 1
  store i32 %5, ptr %7, align 4, !tbaa !46
  ret void
}

; Function Attrs: inlinehint nounwind uwtable
define internal void @var_set_polar(ptr noundef %0, i32 noundef %1, i32 noundef %2) #1 {
  %4 = alloca ptr, align 8
  %5 = alloca i32, align 4
  %6 = alloca i32, align 4
  store ptr %0, ptr %4, align 8, !tbaa !3
  store i32 %1, ptr %5, align 4, !tbaa !8
  store i32 %2, ptr %6, align 4, !tbaa !8
  %7 = load i32, ptr %6, align 4, !tbaa !8
  %8 = trunc i32 %7 to i8
  %9 = load ptr, ptr %4, align 8, !tbaa !3
  %10 = getelementptr inbounds nuw %struct.sat_solver3_t, ptr %9, i32 0, i32 26
  %11 = load ptr, ptr %10, align 8, !tbaa !92
  %12 = load i32, ptr %5, align 4, !tbaa !8
  %13 = sext i32 %12 to i64
  %14 = getelementptr inbounds i8, ptr %11, i64 %13
  store i8 %8, ptr %14, align 1, !tbaa !25
  ret void
}

; Function Attrs: inlinehint nounwind uwtable
define internal i32 @lit_sign(i32 noundef %0) #1 {
  %2 = alloca i32, align 4
  store i32 %0, ptr %2, align 4, !tbaa !8
  %3 = load i32, ptr %2, align 4, !tbaa !8
  %4 = and i32 %3, 1
  ret i32 %4
}

; Function Attrs: inlinehint nounwind uwtable
define internal void @var_set_value(ptr noundef %0, i32 noundef %1, i32 noundef %2) #1 {
  %4 = alloca ptr, align 8
  %5 = alloca i32, align 4
  %6 = alloca i32, align 4
  store ptr %0, ptr %4, align 8, !tbaa !3
  store i32 %1, ptr %5, align 4, !tbaa !8
  store i32 %2, ptr %6, align 4, !tbaa !8
  %7 = load i32, ptr %6, align 4, !tbaa !8
  %8 = trunc i32 %7 to i8
  %9 = load ptr, ptr %4, align 8, !tbaa !3
  %10 = getelementptr inbounds nuw %struct.sat_solver3_t, ptr %9, i32 0, i32 25
  %11 = load ptr, ptr %10, align 8, !tbaa !10
  %12 = load i32, ptr %5, align 4, !tbaa !8
  %13 = sext i32 %12 to i64
  %14 = getelementptr inbounds i8, ptr %11, i64 %13
  store i8 %8, ptr %14, align 1, !tbaa !25
  ret void
}

; Function Attrs: inlinehint nounwind uwtable
define internal i32 @lit_var(i32 noundef %0) #1 {
  %2 = alloca i32, align 4
  store i32 %0, ptr %2, align 4, !tbaa !8
  %3 = load i32, ptr %2, align 4, !tbaa !8
  %4 = ashr i32 %3, 1
  ret i32 %4
}

; Function Attrs: inlinehint nounwind uwtable
define internal i32 @veci_size(ptr noundef %0) #1 {
  %2 = alloca ptr, align 8
  store ptr %0, ptr %2, align 8, !tbaa !45
  %3 = load ptr, ptr %2, align 8, !tbaa !45
  %4 = getelementptr inbounds nuw %struct.veci_t, ptr %3, i32 0, i32 1
  %5 = load i32, ptr %4, align 4, !tbaa !46
  ret i32 %5
}

; Function Attrs: inlinehint nounwind uwtable
define internal ptr @veci_begin(ptr noundef %0) #1 {
  %2 = alloca ptr, align 8
  store ptr %0, ptr %2, align 8, !tbaa !45
  %3 = load ptr, ptr %2, align 8, !tbaa !45
  %4 = getelementptr inbounds nuw %struct.veci_t, ptr %3, i32 0, i32 2
  %5 = load ptr, ptr %4, align 8, !tbaa !48
  ret ptr %5
}

; Function Attrs: inlinehint nounwind uwtable
define internal i32 @sat_solver3_dl(ptr noundef %0) #1 {
  %2 = alloca ptr, align 8
  store ptr %0, ptr %2, align 8, !tbaa !3
  %3 = load ptr, ptr %2, align 8, !tbaa !3
  %4 = getelementptr inbounds nuw %struct.sat_solver3_t, ptr %3, i32 0, i32 35
  %5 = call i32 @veci_size(ptr noundef %4)
  ret i32 %5
}

; Function Attrs: nounwind uwtable
define internal void @sat_solver3_canceluntil(ptr noundef %0, i32 noundef %1) #0 {
  %3 = alloca ptr, align 8
  %4 = alloca i32, align 4
  %5 = alloca i32, align 4
  %6 = alloca i32, align 4
  %7 = alloca i32, align 4
  %8 = alloca i32, align 4
  %9 = alloca i32, align 4
  store ptr %0, ptr %3, align 8, !tbaa !3
  store i32 %1, ptr %4, align 4, !tbaa !8
  call void @llvm.lifetime.start.p0(i64 4, ptr %5) #13
  call void @llvm.lifetime.start.p0(i64 4, ptr %6) #13
  call void @llvm.lifetime.start.p0(i64 4, ptr %7) #13
  %10 = load ptr, ptr %3, align 8, !tbaa !3
  %11 = call i32 @sat_solver3_dl(ptr noundef %10)
  %12 = load i32, ptr %4, align 4, !tbaa !8
  %13 = icmp sle i32 %11, %12
  br i1 %13, label %14, label %15

14:                                               ; preds = %2
  store i32 1, ptr %8, align 4
  br label %110

15:                                               ; preds = %2
  %16 = load ptr, ptr %3, align 8, !tbaa !3
  %17 = getelementptr inbounds nuw %struct.sat_solver3_t, ptr %16, i32 0, i32 35
  %18 = call ptr @veci_begin(ptr noundef %17)
  %19 = load i32, ptr %4, align 4, !tbaa !8
  %20 = sext i32 %19 to i64
  %21 = getelementptr inbounds i32, ptr %18, i64 %20
  %22 = load i32, ptr %21, align 4, !tbaa !8
  store i32 %22, ptr %5, align 4, !tbaa !8
  %23 = load ptr, ptr %3, align 8, !tbaa !3
  %24 = getelementptr inbounds nuw %struct.sat_solver3_t, ptr %23, i32 0, i32 35
  %25 = call ptr @veci_begin(ptr noundef %24)
  %26 = load ptr, ptr %3, align 8, !tbaa !3
  %27 = getelementptr inbounds nuw %struct.sat_solver3_t, ptr %26, i32 0, i32 35
  %28 = call i32 @veci_size(ptr noundef %27)
  %29 = sub nsw i32 %28, 1
  %30 = sext i32 %29 to i64
  %31 = getelementptr inbounds i32, ptr %25, i64 %30
  %32 = load i32, ptr %31, align 4, !tbaa !8
  store i32 %32, ptr %6, align 4, !tbaa !8
  %33 = load ptr, ptr %3, align 8, !tbaa !3
  %34 = getelementptr inbounds nuw %struct.sat_solver3_t, ptr %33, i32 0, i32 3
  %35 = load i32, ptr %34, align 4, !tbaa !58
  %36 = sub nsw i32 %35, 1
  store i32 %36, ptr %7, align 4, !tbaa !8
  br label %37

37:                                               ; preds = %76, %15
  %38 = load i32, ptr %7, align 4, !tbaa !8
  %39 = load i32, ptr %5, align 4, !tbaa !8
  %40 = icmp sge i32 %38, %39
  br i1 %40, label %41, label %79

41:                                               ; preds = %37
  call void @llvm.lifetime.start.p0(i64 4, ptr %9) #13
  %42 = load ptr, ptr %3, align 8, !tbaa !3
  %43 = getelementptr inbounds nuw %struct.sat_solver3_t, ptr %42, i32 0, i32 31
  %44 = load ptr, ptr %43, align 8, !tbaa !60
  %45 = load i32, ptr %7, align 4, !tbaa !8
  %46 = sext i32 %45 to i64
  %47 = getelementptr inbounds i32, ptr %44, i64 %46
  %48 = load i32, ptr %47, align 4, !tbaa !8
  %49 = call i32 @lit_var(i32 noundef %48)
  store i32 %49, ptr %9, align 4, !tbaa !8
  %50 = load ptr, ptr %3, align 8, !tbaa !3
  %51 = load i32, ptr %9, align 4, !tbaa !8
  call void @var_set_value(ptr noundef %50, i32 noundef %51, i32 noundef 3)
  %52 = load ptr, ptr %3, align 8, !tbaa !3
  %53 = getelementptr inbounds nuw %struct.sat_solver3_t, ptr %52, i32 0, i32 30
  %54 = load ptr, ptr %53, align 8, !tbaa !71
  %55 = load i32, ptr %9, align 4, !tbaa !8
  %56 = sext i32 %55 to i64
  %57 = getelementptr inbounds i32, ptr %54, i64 %56
  store i32 0, ptr %57, align 4, !tbaa !8
  %58 = load i32, ptr %7, align 4, !tbaa !8
  %59 = load i32, ptr %6, align 4, !tbaa !8
  %60 = icmp slt i32 %58, %59
  br i1 %60, label %61, label %75

61:                                               ; preds = %41
  %62 = load ptr, ptr %3, align 8, !tbaa !3
  %63 = load i32, ptr %9, align 4, !tbaa !8
  %64 = load ptr, ptr %3, align 8, !tbaa !3
  %65 = getelementptr inbounds nuw %struct.sat_solver3_t, ptr %64, i32 0, i32 31
  %66 = load ptr, ptr %65, align 8, !tbaa !60
  %67 = load i32, ptr %7, align 4, !tbaa !8
  %68 = sext i32 %67 to i64
  %69 = getelementptr inbounds i32, ptr %66, i64 %68
  %70 = load i32, ptr %69, align 4, !tbaa !8
  %71 = call i32 @lit_sign(i32 noundef %70)
  %72 = icmp ne i32 %71, 0
  %73 = xor i1 %72, true
  %74 = zext i1 %73 to i32
  call void @var_set_polar(ptr noundef %62, i32 noundef %63, i32 noundef %74)
  br label %75

75:                                               ; preds = %61, %41
  call void @llvm.lifetime.end.p0(i64 4, ptr %9) #13
  br label %76

76:                                               ; preds = %75
  %77 = load i32, ptr %7, align 4, !tbaa !8
  %78 = add nsw i32 %77, -1
  store i32 %78, ptr %7, align 4, !tbaa !8
  br label %37, !llvm.loop !157

79:                                               ; preds = %37
  %80 = load ptr, ptr %3, align 8, !tbaa !3
  %81 = getelementptr inbounds nuw %struct.sat_solver3_t, ptr %80, i32 0, i32 2
  %82 = load i32, ptr %81, align 8, !tbaa !59
  %83 = sub nsw i32 %82, 1
  store i32 %83, ptr %7, align 4, !tbaa !8
  br label %84

84:                                               ; preds = %98, %79
  %85 = load i32, ptr %7, align 4, !tbaa !8
  %86 = load i32, ptr %5, align 4, !tbaa !8
  %87 = icmp sge i32 %85, %86
  br i1 %87, label %88, label %101

88:                                               ; preds = %84
  %89 = load ptr, ptr %3, align 8, !tbaa !3
  %90 = load ptr, ptr %3, align 8, !tbaa !3
  %91 = getelementptr inbounds nuw %struct.sat_solver3_t, ptr %90, i32 0, i32 31
  %92 = load ptr, ptr %91, align 8, !tbaa !60
  %93 = load i32, ptr %7, align 4, !tbaa !8
  %94 = sext i32 %93 to i64
  %95 = getelementptr inbounds i32, ptr %92, i64 %94
  %96 = load i32, ptr %95, align 4, !tbaa !8
  %97 = call i32 @lit_var(i32 noundef %96)
  call void @order_unassigned(ptr noundef %89, i32 noundef %97)
  br label %98

98:                                               ; preds = %88
  %99 = load i32, ptr %7, align 4, !tbaa !8
  %100 = add nsw i32 %99, -1
  store i32 %100, ptr %7, align 4, !tbaa !8
  br label %84, !llvm.loop !158

101:                                              ; preds = %84
  %102 = load i32, ptr %5, align 4, !tbaa !8
  %103 = load ptr, ptr %3, align 8, !tbaa !3
  %104 = getelementptr inbounds nuw %struct.sat_solver3_t, ptr %103, i32 0, i32 3
  store i32 %102, ptr %104, align 4, !tbaa !58
  %105 = load ptr, ptr %3, align 8, !tbaa !3
  %106 = getelementptr inbounds nuw %struct.sat_solver3_t, ptr %105, i32 0, i32 2
  store i32 %102, ptr %106, align 8, !tbaa !59
  %107 = load ptr, ptr %3, align 8, !tbaa !3
  %108 = getelementptr inbounds nuw %struct.sat_solver3_t, ptr %107, i32 0, i32 35
  %109 = load i32, ptr %4, align 4, !tbaa !8
  call void @veci_resize(ptr noundef %108, i32 noundef %109)
  store i32 0, ptr %8, align 4
  br label %110

110:                                              ; preds = %101, %14
  call void @llvm.lifetime.end.p0(i64 4, ptr %7) #13
  call void @llvm.lifetime.end.p0(i64 4, ptr %6) #13
  call void @llvm.lifetime.end.p0(i64 4, ptr %5) #13
  %111 = load i32, ptr %8, align 4
  switch i32 %111, label %113 [
    i32 0, label %112
    i32 1, label %112
  ]

112:                                              ; preds = %110, %110
  ret void

113:                                              ; preds = %110
  unreachable
}

; Function Attrs: nounwind uwtable
define void @sat_solver3_pop(ptr noundef %0) #0 {
  %2 = alloca ptr, align 8
  store ptr %0, ptr %2, align 8, !tbaa !3
  %3 = load ptr, ptr %2, align 8, !tbaa !3
  %4 = load ptr, ptr %2, align 8, !tbaa !3
  %5 = getelementptr inbounds nuw %struct.sat_solver3_t, ptr %4, i32 0, i32 38
  %6 = load i32, ptr %5, align 8, !tbaa !77
  %7 = add nsw i32 %6, -1
  store i32 %7, ptr %5, align 8, !tbaa !77
  call void @sat_solver3_canceluntil(ptr noundef %3, i32 noundef %7)
  ret void
}