; Function Attrs: nounwind uwtable
define void @sat_solver3_pop(ptr noundef captures(none) %0) local_unnamed_addr #3 {
  %2 = getelementptr inbounds nuw i8, ptr %0, i64 352
  %3 = load i32, ptr %2, align 8, !tbaa !88
  %4 = add nsw i32 %3, -1
  store i32 %4, ptr %2, align 8, !tbaa !88
  %5 = getelementptr i8, ptr %0, i64 316
  %.val42.i = load i32, ptr %5, align 4, !tbaa !34
  %.not.i.not = icmp slt i32 %.val42.i, %3
  br i1 %.not.i.not, label %sat_solver3_canceluntil.exit, label %6

6:                                                ; preds = %1
  %7 = getelementptr i8, ptr %0, i64 320
  %.val39.i = load ptr, ptr %7, align 8, !tbaa !28
  %8 = sext i32 %4 to i64
  %9 = getelementptr inbounds i32, ptr %.val39.i, i64 %8
  %10 = load i32, ptr %9, align 4, !tbaa !29
  %11 = getelementptr inbounds nuw i8, ptr %0, i64 12
  %12 = load i32, ptr %11, align 4, !tbaa !51
  %.not35.not45.i = icmp sgt i32 %12, %10
  br i1 %.not35.not45.i, label %.lr.ph.i, label %._crit_edge.i

.lr.ph.i:                                         ; preds = %6
  %13 = sext i32 %.val42.i to i64
  %14 = getelementptr i32, ptr %.val39.i, i64 %13
  %15 = getelementptr i8, ptr %14, i64 -4
  %16 = load i32, ptr %15, align 4, !tbaa !29
  %17 = getelementptr inbounds nuw i8, ptr %0, i64 256
  %18 = getelementptr i8, ptr %0, i64 208
  %19 = getelementptr inbounds nuw i8, ptr %0, i64 248
  %20 = getelementptr i8, ptr %0, i64 216
  %21 = sext i32 %12 to i64
  %22 = sext i32 %16 to i64
  %23 = sext i32 %10 to i64
  br label %24

24:                                               ; preds = %41, %.lr.ph.i
  %indvars.iv.i = phi i64 [ %21, %.lr.ph.i ], [ %indvars.iv.next.i, %41 ]
  %indvars.iv.next.i = add nsw i64 %indvars.iv.i, -1
  %25 = load ptr, ptr %17, align 8, !tbaa !53
  %26 = getelementptr inbounds i32, ptr %25, i64 %indvars.iv.next.i
  %27 = load i32, ptr %26, align 4, !tbaa !29
  %28 = ashr i32 %27, 1
  %.val41.i = load ptr, ptr %18, align 8, !tbaa !3
  %29 = sext i32 %28 to i64
  %30 = getelementptr inbounds i8, ptr %.val41.i, i64 %29
  store i8 3, ptr %30, align 1, !tbaa !22
  %31 = load ptr, ptr %19, align 8, !tbaa !56
  %32 = getelementptr inbounds i32, ptr %31, i64 %29
  store i32 0, ptr %32, align 4, !tbaa !29
  %.not37.i = icmp sgt i64 %indvars.iv.i, %22
  br i1 %.not37.i, label %41, label %33

33:                                               ; preds = %24
  %34 = load ptr, ptr %17, align 8, !tbaa !53
  %35 = getelementptr inbounds i32, ptr %34, i64 %indvars.iv.next.i
  %36 = load i32, ptr %35, align 4, !tbaa !29
  %.val43.i = load ptr, ptr %20, align 8, !tbaa !75
  %37 = trunc i32 %36 to i8
  %38 = and i8 %37, 1
  %39 = xor i8 %38, 1
  %40 = getelementptr inbounds i8, ptr %.val43.i, i64 %29
  store i8 %39, ptr %40, align 1, !tbaa !22
  br label %41

41:                                               ; preds = %33, %24
  %.not35.not.i = icmp sgt i64 %indvars.iv.next.i, %23
  br i1 %.not35.not.i, label %24, label %._crit_edge.i, !llvm.loop !163

._crit_edge.i:                                    ; preds = %41, %6
  %42 = getelementptr inbounds nuw i8, ptr %0, i64 8
  %43 = load i32, ptr %42, align 8, !tbaa !52
  %.not36.not48.i = icmp sgt i32 %43, %10
  br i1 %.not36.not48.i, label %.lr.ph51.i, label %._crit_edge52.i

.lr.ph51.i:                                       ; preds = %._crit_edge.i
  %44 = getelementptr inbounds nuw i8, ptr %0, i64 256
  %45 = sext i32 %43 to i64
  %46 = sext i32 %10 to i64
  br label %47

47:                                               ; preds = %47, %.lr.ph51.i
  %indvars.iv54.i = phi i64 [ %45, %.lr.ph51.i ], [ %indvars.iv.next55.i, %47 ]
  %indvars.iv.next55.i = add nsw i64 %indvars.iv54.i, -1
  %48 = load ptr, ptr %44, align 8, !tbaa !53
  %49 = getelementptr inbounds i32, ptr %48, i64 %indvars.iv.next55.i
  %50 = load i32, ptr %49, align 4, !tbaa !29
  %51 = ashr i32 %50, 1
  tail call fastcc void @order_unassigned(ptr noundef nonnull %0, i32 noundef %51)
  %.not36.not.i = icmp sgt i64 %indvars.iv.next55.i, %46
  br i1 %.not36.not.i, label %47, label %._crit_edge52.i, !llvm.loop !164

._crit_edge52.i:                                  ; preds = %47, %._crit_edge.i
  store i32 %10, ptr %11, align 4, !tbaa !51
  store i32 %10, ptr %42, align 8, !tbaa !52
  store i32 %4, ptr %5, align 4, !tbaa !34
  br label %sat_solver3_canceluntil.exit

sat_solver3_canceluntil.exit:                     ; preds = %1, %._crit_edge52.i
  ret void
}